; ModuleID = '11/324.c'
source_filename = "11/324.c"
target datalayout = "e-m:e-p270:32:32-p271:32:32-p272:64:64-i64:64-f80:128-n8:16:32:64-S128"
target triple = "x86_64-pc-linux-gnu"

@.str = private unnamed_addr constant [7 x i8] c"%d%d%d\00", align 1
@.str.1 = private unnamed_addr constant [4 x i8] c"%d\0A\00", align 1

; Function Attrs: noinline nounwind uwtable
define dso_local i32 @main() #0 {
  %1 = alloca i32, align 4
  %2 = alloca [100 x i32], align 16
  %3 = alloca i32, align 4
  %4 = alloca i32, align 4
  %5 = alloca i32, align 4
  %6 = alloca i32, align 4
  %7 = alloca i32, align 4
  store i32 0, i32* %1, align 4
  %8 = call i32 (i8*, ...) @__isoc99_scanf(i8* getelementptr inbounds ([7 x i8], [7 x i8]* @.str, i64 0, i64 0), i32* %4, i32* %5, i32* %6)
  %9 = load i32, i32* %4, align 4
  %10 = srem i32 %9, 4
  %11 = icmp eq i32 %10, 0
  br i1 %11, label %12, label %16

12:                                               ; preds = %0
  %13 = load i32, i32* %4, align 4
  %14 = srem i32 %13, 100
  %15 = icmp sgt i32 %14, 0
  br i1 %15, label %20, label %16

16:                                               ; preds = %12, %0
  %17 = load i32, i32* %4, align 4
  %18 = srem i32 %17, 400
  %19 = icmp eq i32 %18, 0
  br i1 %19, label %20, label %22

20:                                               ; preds = %16, %12
  %21 = getelementptr inbounds [100 x i32], [100 x i32]* %2, i64 0, i64 2
  store i32 29, i32* %21, align 8
  br label %24

22:                                               ; preds = %16
  %23 = getelementptr inbounds [100 x i32], [100 x i32]* %2, i64 0, i64 2
  store i32 28, i32* %23, align 8
  br label %24

24:                                               ; preds = %22, %20
  %25 = getelementptr inbounds [100 x i32], [100 x i32]* %2, i64 0, i64 1
  store i32 31, i32* %25, align 4
  %26 = getelementptr inbounds [100 x i32], [100 x i32]* %2, i64 0, i64 3
  store i32 31, i32* %26, align 4
  %27 = getelementptr inbounds [100 x i32], [100 x i32]* %2, i64 0, i64 5
  store i32 31, i32* %27, align 4
  %28 = getelementptr inbounds [100 x i32], [100 x i32]* %2, i64 0, i64 7
  store i32 31, i32* %28, align 4
  %29 = getelementptr inbounds [100 x i32], [100 x i32]* %2, i64 0, i64 8
  store i32 31, i32* %29, align 16
  %30 = getelementptr inbounds [100 x i32], [100 x i32]* %2, i64 0, i64 10
  store i32 31, i32* %30, align 8
  %31 = getelementptr inbounds [100 x i32], [100 x i32]* %2, i64 0, i64 12
  store i32 31, i32* %31, align 16
  %32 = getelementptr inbounds [100 x i32], [100 x i32]* %2, i64 0, i64 4
  store i32 30, i32* %32, align 16
  %33 = getelementptr inbounds [100 x i32], [100 x i32]* %2, i64 0, i64 6
  store i32 30, i32* %33, align 8
  %34 = getelementptr inbounds [100 x i32], [100 x i32]* %2, i64 0, i64 9
  store i32 30, i32* %34, align 4
  %35 = getelementptr inbounds [100 x i32], [100 x i32]* %2, i64 0, i64 11
  store i32 30, i32* %35, align 4
  store i32 0, i32* %7, align 4
  store i32 1, i32* %3, align 4
  br label %36

36:                                               ; preds = %47, %24
  %37 = load i32, i32* %3, align 4
  %38 = load i32, i32* %5, align 4
  %39 = icmp slt i32 %37, %38
  br i1 %39, label %40, label %50

40:                                               ; preds = %36
  %41 = load i32, i32* %7, align 4
  %42 = load i32, i32* %3, align 4
  %43 = sext i32 %42 to i64
  %44 = getelementptr inbounds [100 x i32], [100 x i32]* %2, i64 0, i64 %43
  %45 = load i32, i32* %44, align 4
  %46 = add nsw i32 %41, %45
  store i32 %46, i32* %7, align 4
  br label %47

47:                                               ; preds = %40
  %48 = load i32, i32* %3, align 4
  %49 = add nsw i32 %48, 1
  store i32 %49, i32* %3, align 4
  br label %36

50:                                               ; preds = %36
  %51 = load i32, i32* %7, align 4
  %52 = load i32, i32* %6, align 4
  %53 = add nsw i32 %51, %52
  store i32 %53, i32* %7, align 4
  %54 = load i32, i32* %7, align 4
  %55 = call i32 (i8*, ...) @printf(i8* getelementptr inbounds ([4 x i8], [4 x i8]* @.str.1, i64 0, i64 0), i32 %54)
  ret i32 0
}

declare dso_local i32 @__isoc99_scanf(i8*, ...) #1

declare dso_local i32 @printf(i8*, ...) #1


!llvm.module.flags = !{!0}
!llvm.ident = !{!1}

!0 = !{i32 1, !"wchar_size", i32 4}
!1 = !{!"clang version 10.0.0-4ubuntu1 "}
